target datalayout = "e-m:e-p270:32:32-p271:32:32-p272:64:64-i64:64-i128:128-f80:128-n8:16:32:64-S128"
target triple = "x86_64-pc-linux-gnu"

%"class.std::__1::error_code" = type { i32, ptr }
%"class.std::__1::shared_ptr.1" = type { ptr, ptr }
%"class.std::__1::__fs::filesystem::recursive_directory_iterator" = type <{ %"class.std::__1::shared_ptr.1", i8, [7 x i8] }>

; Function Attrs: mustprogress nounwind uwtable
define linkonce_odr hidden noundef zeroext i1 @_ZNKSt3__110error_codecvbB8ne210000Ev(ptr noundef nonnull align 8 dereferenceable(16) %0) #1 comdat align 2 {
  %2 = alloca ptr, align 8
  store ptr %0, ptr %2, align 8, !tbaa !11
  %3 = load ptr, ptr %2, align 8
  %4 = getelementptr inbounds nuw %"class.std::__1::error_code", ptr %3, i32 0, i32 0
  %5 = load i32, ptr %4, align 8, !tbaa !36
  %6 = icmp ne i32 %5, 0
  ret i1 %6
}

; Function Attrs: mustprogress nounwind uwtable
define linkonce_odr hidden noundef zeroext i1 @_ZNKSt3__14__fs10filesystem28recursive_directory_iterator17recursion_pendingB8ne210000Ev(ptr noundef nonnull align 8 dereferenceable(17) %0) #1 comdat align 2 {
  %2 = alloca ptr, align 8
  store ptr %0, ptr %2, align 8, !tbaa !64
  %3 = load ptr, ptr %2, align 8
  %4 = getelementptr inbounds nuw %"class.std::__1::__fs::filesystem::recursive_directory_iterator", ptr %3, i32 0, i32 1
  %5 = load i8, ptr %4, align 8, !tbaa !66, !range !85, !noundef !86
  %6 = trunc i8 %5 to i1
  ret i1 %6
}

; Function Attrs: mustprogress nounwind uwtable
define linkonce_odr hidden void @_ZNSt3__110error_code5clearB8ne210000Ev(ptr noundef nonnull align 8 dereferenceable(16) %0) #1 comdat align 2 {
  %2 = alloca ptr, align 8
  store ptr %0, ptr %2, align 8, !tbaa !11
  %3 = load ptr, ptr %2, align 8
  %4 = getelementptr inbounds nuw %"class.std::__1::error_code", ptr %3, i32 0, i32 0
  store i32 0, ptr %4, align 8, !tbaa !36
  %5 = call noundef nonnull align 8 dereferenceable(8) ptr @_ZNSt3__115system_categoryEv() #21
  %6 = getelementptr inbounds nuw %"class.std::__1::error_code", ptr %3, i32 0, i32 1
  store ptr %5, ptr %6, align 8, !tbaa !38
  ret void
}

; Function Attrs: mustprogress uwtable
define dso_local noundef nonnull align 8 dereferenceable(17) ptr @_ZNSt3__14__fs10filesystem28recursive_directory_iterator11__incrementEPNS_10error_codeE(ptr noundef nonnull align 8 dereferenceable(17) %0, ptr noundef %1) #0 align 2 {
  %3 = alloca ptr, align 8
  %4 = alloca ptr, align 8
  %5 = alloca ptr, align 8
  store ptr %0, ptr %4, align 8, !tbaa !64
  store ptr %1, ptr %5, align 8, !tbaa !11
  %6 = load ptr, ptr %4, align 8
  %7 = load ptr, ptr %5, align 8, !tbaa !11
  %8 = icmp ne ptr %7, null
  br i1 %8, label %9, label %11

9:                                                ; preds = %2
  %10 = load ptr, ptr %5, align 8, !tbaa !11
  call void @_ZNSt3__110error_code5clearB8ne210000Ev(ptr noundef nonnull align 8 dereferenceable(16) %10) #20
  br label %11

11:                                               ; preds = %9, %2
  %12 = call noundef zeroext i1 @_ZNKSt3__14__fs10filesystem28recursive_directory_iterator17recursion_pendingB8ne210000Ev(ptr noundef nonnull align 8 dereferenceable(17) %6)
  br i1 %12, label %13, label %24

13:                                               ; preds = %11
  %14 = load ptr, ptr %5, align 8, !tbaa !11
  %15 = call noundef zeroext i1 @_ZNSt3__14__fs10filesystem28recursive_directory_iterator15__try_recursionEPNS_10error_codeE(ptr noundef nonnull align 8 dereferenceable(17) %6, ptr noundef %14)
  br i1 %15, label %22, label %16

16:                                               ; preds = %13
  %17 = load ptr, ptr %5, align 8, !tbaa !11
  %18 = icmp ne ptr %17, null
  br i1 %18, label %19, label %23

19:                                               ; preds = %16
  %20 = load ptr, ptr %5, align 8, !tbaa !11
  %21 = call noundef zeroext i1 @_ZNKSt3__110error_codecvbB8ne210000Ev(ptr noundef nonnull align 8 dereferenceable(16) %20) #20
  br i1 %21, label %22, label %23

22:                                               ; preds = %19, %13
  store ptr %6, ptr %3, align 8
  br label %27

23:                                               ; preds = %19, %16
  br label %24

24:                                               ; preds = %23, %11
  %25 = getelementptr inbounds nuw %"class.std::__1::__fs::filesystem::recursive_directory_iterator", ptr %6, i32 0, i32 1
  store i8 1, ptr %25, align 8, !tbaa !66
  %26 = load ptr, ptr %5, align 8, !tbaa !11
  call void @_ZNSt3__14__fs10filesystem28recursive_directory_iterator9__advanceEPNS_10error_codeE(ptr noundef nonnull align 8 dereferenceable(17) %6, ptr noundef %26)
  store ptr %6, ptr %3, align 8
  br label %27

27:                                               ; preds = %24, %22
  %28 = load ptr, ptr %3, align 8
  ret ptr %28
}