; Function Attrs: mustprogress uwtable
define dso_local noundef nonnull align 8 dereferenceable(17) ptr @_ZNSt3__14__fs10filesystem28recursive_directory_iterator11__incrementEPNS_10error_codeE(ptr noundef nonnull returned align 8 captures(ret: address, provenance) dereferenceable(17) %0, ptr noundef %1) local_unnamed_addr #0 align 2 {
  %.not = icmp eq ptr %1, null
  br i1 %.not, label %6, label %3

3:                                                ; preds = %2
  store i32 0, ptr %1, align 8, !tbaa !15
  %4 = tail call noundef nonnull align 8 dereferenceable(8) ptr @_ZNSt3__115system_categoryEv() #28
  %5 = getelementptr inbounds nuw i8, ptr %1, i64 8
  store ptr %4, ptr %5, align 8, !tbaa !19
  br label %6

6:                                                ; preds = %3, %2
  %7 = getelementptr inbounds nuw i8, ptr %0, i64 16
  %8 = load i8, ptr %7, align 8, !tbaa !68, !range !101, !noundef !102
  %9 = trunc nuw i8 %8 to i1
  br i1 %9, label %10, label %15

10:                                               ; preds = %6
  %11 = tail call noundef zeroext i1 @_ZNSt3__14__fs10filesystem28recursive_directory_iterator15__try_recursionEPNS_10error_codeE(ptr noundef nonnull align 8 dereferenceable(17) %0, ptr noundef %1)
  br i1 %11, label %16, label %12

12:                                               ; preds = %10
  br i1 %.not, label %15, label %13

13:                                               ; preds = %12
  %14 = load i32, ptr %1, align 8, !tbaa !15
  %.not8 = icmp eq i32 %14, 0
  br i1 %.not8, label %15, label %16

15:                                               ; preds = %12, %13, %6
  store i8 1, ptr %7, align 8, !tbaa !68
  tail call void @_ZNSt3__14__fs10filesystem28recursive_directory_iterator9__advanceEPNS_10error_codeE(ptr noundef nonnull align 8 dereferenceable(17) %0, ptr noundef %1)
  br label %16

16:                                               ; preds = %10, %13, %15
  ret ptr %0
}